target datalayout = "e-m:e-p270:32:32-p271:32:32-p272:64:64-i64:64-i128:128-f80:128-n8:16:32:64-S128"
target triple = "x86_64-pc-linux-gnu"

%"class.std::__exception_ptr::exception_ptr" = type { ptr }
%"class.std::runtime_error" = type { %"class.std::exception", %"struct.std::__cow_string" }
%"class.std::exception" = type { ptr }
%"struct.std::__cow_string" = type { %union.anon }
%union.anon = type { ptr }
%"class.faiss::FaissException" = type { %"class.std::exception", %"class.std::__cxx11::basic_string" }
%"class.std::__cxx11::basic_string" = type { %"struct.std::__cxx11::basic_string<char>::_Alloc_hider", i64, %union.anon.0 }
%"struct.std::__cxx11::basic_string<char>::_Alloc_hider" = type { ptr }
%union.anon.0 = type { i64, [8 x i8] }

@_ZTIN5faiss14FaissExceptionE = external constant ptr
@_ZTISt9exception = external constant ptr
@.str = private unnamed_addr constant [14 x i8] c"Unknown error\00", align 1
@faiss_last_exception = external thread_local global %"class.std::__exception_ptr::exception_ptr", align 8
@_ZTVSt9exception = available_externally unnamed_addr constant { [5 x ptr] } { [5 x ptr] [ptr null, ptr @_ZTISt9exception, ptr @_ZNSt9exceptionD1Ev, ptr @_ZNSt9exceptionD0Ev, ptr @_ZNKSt9exception4whatEv] }, align 8

; Function Attrs: inlinehint mustprogress nounwind uwtable
define linkonce_odr void @_ZNSt15__exception_ptr13exception_ptr4swapERS0_(ptr noundef nonnull align 8 dereferenceable(8) %0, ptr noundef nonnull align 8 dereferenceable(8) %1) #9 comdat align 2 {
  %3 = alloca ptr, align 8
  %4 = alloca ptr, align 8
  %5 = alloca ptr, align 8
  store ptr %0, ptr %3, align 8, !tbaa !19
  store ptr %1, ptr %4, align 8, !tbaa !19
  %6 = load ptr, ptr %3, align 8
  call void @llvm.lifetime.start.p0(i64 8, ptr %5) #3
  %7 = getelementptr inbounds nuw %"class.std::__exception_ptr::exception_ptr", ptr %6, i32 0, i32 0
  %8 = load ptr, ptr %7, align 8, !tbaa !21
  store ptr %8, ptr %5, align 8, !tbaa !18
  %9 = load ptr, ptr %4, align 8, !tbaa !19
  %10 = getelementptr inbounds nuw %"class.std::__exception_ptr::exception_ptr", ptr %9, i32 0, i32 0
  %11 = load ptr, ptr %10, align 8, !tbaa !21
  %12 = getelementptr inbounds nuw %"class.std::__exception_ptr::exception_ptr", ptr %6, i32 0, i32 0
  store ptr %11, ptr %12, align 8, !tbaa !21
  %13 = load ptr, ptr %5, align 8, !tbaa !18
  %14 = load ptr, ptr %4, align 8, !tbaa !19
  %15 = getelementptr inbounds nuw %"class.std::__exception_ptr::exception_ptr", ptr %14, i32 0, i32 0
  store ptr %13, ptr %15, align 8, !tbaa !21
  call void @llvm.lifetime.end.p0(i64 8, ptr %5) #3
  ret void
}

; Function Attrs: mustprogress nounwind uwtable
define linkonce_odr void @_ZNSt15__exception_ptr13exception_ptrC2EOS0_(ptr noundef nonnull align 8 dereferenceable(8) %0, ptr noundef nonnull align 8 dereferenceable(8) %1) unnamed_addr #7 comdat align 2 {
  %3 = alloca ptr, align 8
  %4 = alloca ptr, align 8
  store ptr %0, ptr %3, align 8, !tbaa !19
  store ptr %1, ptr %4, align 8, !tbaa !19
  %5 = load ptr, ptr %3, align 8
  %6 = getelementptr inbounds nuw %"class.std::__exception_ptr::exception_ptr", ptr %5, i32 0, i32 0
  %7 = load ptr, ptr %4, align 8, !tbaa !19
  %8 = getelementptr inbounds nuw %"class.std::__exception_ptr::exception_ptr", ptr %7, i32 0, i32 0
  %9 = load ptr, ptr %8, align 8, !tbaa !21
  store ptr %9, ptr %6, align 8, !tbaa !21
  %10 = load ptr, ptr %4, align 8, !tbaa !19
  %11 = getelementptr inbounds nuw %"class.std::__exception_ptr::exception_ptr", ptr %10, i32 0, i32 0
  store ptr null, ptr %11, align 8, !tbaa !21
  ret void
}

; Function Attrs: mustprogress nounwind uwtable
define linkonce_odr void @_ZNSt9exceptionC2ERKS_(ptr noundef nonnull align 8 dereferenceable(8) %0, ptr noundef nonnull align 8 dereferenceable(8) %1) unnamed_addr #7 comdat align 2 {
  %3 = alloca ptr, align 8
  %4 = alloca ptr, align 8
  store ptr %0, ptr %3, align 8, !tbaa !14
  store ptr %1, ptr %4, align 8, !tbaa !14
  %5 = load ptr, ptr %3, align 8
  store ptr getelementptr inbounds inrange(-16, 24) ({ [5 x ptr] }, ptr @_ZTVSt9exception, i32 0, i32 0, i32 2), ptr %5, align 8, !tbaa !23
  ret void
}

; Function Attrs: inlinehint mustprogress nounwind uwtable
define linkonce_odr void @_ZNSt15__exception_ptr13exception_ptrD2Ev(ptr noundef nonnull align 8 dereferenceable(8) %0) unnamed_addr #9 comdat align 2 {
  %2 = alloca ptr, align 8
  store ptr %0, ptr %2, align 8, !tbaa !19
  %3 = load ptr, ptr %2, align 8
  %4 = getelementptr inbounds nuw %"class.std::__exception_ptr::exception_ptr", ptr %3, i32 0, i32 0
  %5 = load ptr, ptr %4, align 8, !tbaa !21
  %6 = icmp ne ptr %5, null
  br i1 %6, label %7, label %8

7:                                                ; preds = %1
  call void @_ZNSt15__exception_ptr13exception_ptr10_M_releaseEv(ptr noundef nonnull align 8 dereferenceable(8) %3) #3
  br label %8

8:                                                ; preds = %7, %1
  ret void
}

; Function Attrs: mustprogress nounwind uwtable
define linkonce_odr noundef nonnull align 8 dereferenceable(8) ptr @_ZNSt15__exception_ptr13exception_ptraSEOS0_(ptr noundef nonnull align 8 dereferenceable(8) %0, ptr noundef nonnull align 8 dereferenceable(8) %1) #7 comdat align 2 {
  %3 = alloca ptr, align 8
  %4 = alloca ptr, align 8
  %5 = alloca %"class.std::__exception_ptr::exception_ptr", align 8
  store ptr %0, ptr %3, align 8, !tbaa !19
  store ptr %1, ptr %4, align 8, !tbaa !19
  %6 = load ptr, ptr %3, align 8
  call void @llvm.lifetime.start.p0(i64 8, ptr %5) #3
  %7 = load ptr, ptr %4, align 8, !tbaa !19
  call void @_ZNSt15__exception_ptr13exception_ptrC2EOS0_(ptr noundef nonnull align 8 dereferenceable(8) %5, ptr noundef nonnull align 8 dereferenceable(8) %7) #3
  call void @_ZNSt15__exception_ptr13exception_ptr4swapERS0_(ptr noundef nonnull align 8 dereferenceable(8) %5, ptr noundef nonnull align 8 dereferenceable(8) %6) #3
  call void @_ZNSt15__exception_ptr13exception_ptrD2Ev(ptr noundef nonnull align 8 dereferenceable(8) %5) #3
  call void @llvm.lifetime.end.p0(i64 8, ptr %5) #3
  ret ptr %6
}

; Function Attrs: uwtable
define linkonce_odr hidden noundef ptr @_ZTW20faiss_last_exception() #8 comdat {
  %1 = icmp ne ptr @_ZTH20faiss_last_exception, null
  br i1 %1, label %2, label %3

2:                                                ; preds = %0
  call void @_ZTH20faiss_last_exception()
  br label %3

3:                                                ; preds = %2, %0
  %4 = call align 8 ptr @llvm.threadlocal.address.p0(ptr align 8 @faiss_last_exception)
  ret ptr %4
}

; Function Attrs: mustprogress uwtable
define i32 @faiss_clone_index_binary(ptr noundef %0, ptr noundef %1) #4 personality ptr @__gxx_personality_v0 {
  %3 = alloca i32, align 4
  %4 = alloca ptr, align 8
  %5 = alloca ptr, align 8
  %6 = alloca ptr, align 8
  %7 = alloca ptr, align 8
  %8 = alloca i32, align 4
  %9 = alloca %"class.std::__exception_ptr::exception_ptr", align 8
  %10 = alloca %"class.std::runtime_error", align 8
  %11 = alloca ptr, align 8
  %12 = alloca %"class.std::__exception_ptr::exception_ptr", align 8
  %13 = alloca %"class.std::exception", align 8
  %14 = alloca ptr, align 8
  %15 = alloca %"class.std::__exception_ptr::exception_ptr", align 8
  %16 = alloca %"class.faiss::FaissException", align 8
  store ptr %0, ptr %4, align 8, !tbaa !25
  store ptr %1, ptr %5, align 8, !tbaa !27
  call void @llvm.lifetime.start.p0(i64 8, ptr %6) #3
  %17 = load ptr, ptr %4, align 8, !tbaa !25
  %18 = invoke noundef ptr @_ZN5faiss18clone_binary_indexEPKNS_11IndexBinaryE(ptr noundef %17)
          to label %19 unwind label %22

19:                                               ; preds = %2
  store ptr %18, ptr %6, align 8, !tbaa !29
  %20 = load ptr, ptr %6, align 8, !tbaa !29
  %21 = load ptr, ptr %5, align 8, !tbaa !27
  store ptr %20, ptr %21, align 8, !tbaa !25
  call void @llvm.lifetime.end.p0(i64 8, ptr %6) #3
  br label %62

22:                                               ; preds = %2
  %23 = landingpad { ptr, i32 }
          catch ptr @_ZTIN5faiss14FaissExceptionE
          catch ptr @_ZTISt9exception
          catch ptr null
  %24 = extractvalue { ptr, i32 } %23, 0
  store ptr %24, ptr %7, align 8
  %25 = extractvalue { ptr, i32 } %23, 1
  store i32 %25, ptr %8, align 4
  call void @llvm.lifetime.end.p0(i64 8, ptr %6) #3
  br label %26

26:                                               ; preds = %22
  %27 = load i32, ptr %8, align 4
  %28 = call i32 @llvm.eh.typeid.for.p0(ptr @_ZTIN5faiss14FaissExceptionE) #3
  %29 = icmp eq i32 %27, %28
  br i1 %29, label %30, label %37

30:                                               ; preds = %26
  call void @llvm.lifetime.start.p0(i64 8, ptr %14) #3
  %31 = load ptr, ptr %7, align 8
  %32 = call ptr @__cxa_begin_catch(ptr %31) #3
  store ptr %32, ptr %14, align 8
  call void @llvm.lifetime.start.p0(i64 8, ptr %15) #3
  %33 = load ptr, ptr %14, align 8, !tbaa !12
  invoke void @_ZN5faiss14FaissExceptionC2ERKS0_(ptr noundef nonnull align 8 dereferenceable(40) %16, ptr noundef nonnull align 8 dereferenceable(40) %33)
          to label %34 unwind label %57

34:                                               ; preds = %30
  call void @_ZSt18make_exception_ptrIN5faiss14FaissExceptionEENSt15__exception_ptr13exception_ptrET_(ptr dead_on_unwind writable sret(%"class.std::__exception_ptr::exception_ptr") align 8 %15, ptr noundef %16) #3
  %35 = call ptr @_ZTW20faiss_last_exception()
  %36 = call noundef nonnull align 8 dereferenceable(8) ptr @_ZNSt15__exception_ptr13exception_ptraSEOS0_(ptr noundef nonnull align 8 dereferenceable(8) %35, ptr noundef nonnull align 8 dereferenceable(8) %15) #3
  call void @_ZNSt15__exception_ptr13exception_ptrD2Ev(ptr noundef nonnull align 8 dereferenceable(8) %15) #3
  call void @_ZN5faiss14FaissExceptionD2Ev(ptr noundef nonnull align 8 dereferenceable(40) %16) #3
  call void @llvm.lifetime.end.p0(i64 8, ptr %15) #3
  store i32 -2, ptr %3, align 4
  call void @__cxa_end_catch()
  call void @llvm.lifetime.end.p0(i64 8, ptr %14) #3
  br label %63

37:                                               ; preds = %26
  %38 = call i32 @llvm.eh.typeid.for.p0(ptr @_ZTISt9exception) #3
  %39 = icmp eq i32 %27, %38
  br i1 %39, label %40, label %46

40:                                               ; preds = %37
  call void @llvm.lifetime.start.p0(i64 8, ptr %11) #3
  %41 = load ptr, ptr %7, align 8
  %42 = call ptr @__cxa_begin_catch(ptr %41) #3
  store ptr %42, ptr %11, align 8
  call void @llvm.lifetime.start.p0(i64 8, ptr %12) #3
  %43 = load ptr, ptr %11, align 8, !tbaa !14
  call void @_ZNSt9exceptionC2ERKS_(ptr noundef nonnull align 8 dereferenceable(8) %13, ptr noundef nonnull align 8 dereferenceable(8) %43) #3
  call void @_ZSt18make_exception_ptrISt9exceptionENSt15__exception_ptr13exception_ptrET_(ptr dead_on_unwind writable sret(%"class.std::__exception_ptr::exception_ptr") align 8 %12, ptr noundef %13) #3
  %44 = call ptr @_ZTW20faiss_last_exception()
  %45 = call noundef nonnull align 8 dereferenceable(8) ptr @_ZNSt15__exception_ptr13exception_ptraSEOS0_(ptr noundef nonnull align 8 dereferenceable(8) %44, ptr noundef nonnull align 8 dereferenceable(8) %12) #3
  call void @_ZNSt15__exception_ptr13exception_ptrD2Ev(ptr noundef nonnull align 8 dereferenceable(8) %12) #3
  call void @_ZNSt9exceptionD1Ev(ptr noundef nonnull align 8 dereferenceable(8) %13) #3
  call void @llvm.lifetime.end.p0(i64 8, ptr %12) #3
  store i32 -4, ptr %3, align 4
  call void @__cxa_end_catch()
  call void @llvm.lifetime.end.p0(i64 8, ptr %11) #3
  br label %63

46:                                               ; preds = %37
  %47 = load ptr, ptr %7, align 8
  %48 = call ptr @__cxa_begin_catch(ptr %47) #3
  call void @llvm.lifetime.start.p0(i64 8, ptr %9) #3
  invoke void @_ZNSt13runtime_errorC1EPKc(ptr noundef nonnull align 8 dereferenceable(16) %10, ptr noundef @.str)
          to label %49 unwind label %52

49:                                               ; preds = %46
  call void @_ZSt18make_exception_ptrISt13runtime_errorENSt15__exception_ptr13exception_ptrET_(ptr dead_on_unwind writable sret(%"class.std::__exception_ptr::exception_ptr") align 8 %9, ptr noundef %10) #3
  %50 = call ptr @_ZTW20faiss_last_exception()
  %51 = call noundef nonnull align 8 dereferenceable(8) ptr @_ZNSt15__exception_ptr13exception_ptraSEOS0_(ptr noundef nonnull align 8 dereferenceable(8) %50, ptr noundef nonnull align 8 dereferenceable(8) %9) #3
  call void @_ZNSt15__exception_ptr13exception_ptrD2Ev(ptr noundef nonnull align 8 dereferenceable(8) %9) #3
  call void @_ZNSt13runtime_errorD1Ev(ptr noundef nonnull align 8 dereferenceable(16) %10) #3
  call void @llvm.lifetime.end.p0(i64 8, ptr %9) #3
  store i32 -1, ptr %3, align 4
  call void @__cxa_end_catch()
  br label %63

52:                                               ; preds = %46
  %53 = landingpad { ptr, i32 }
          cleanup
  %54 = extractvalue { ptr, i32 } %53, 0
  store ptr %54, ptr %7, align 8
  %55 = extractvalue { ptr, i32 } %53, 1
  store i32 %55, ptr %8, align 4
  call void @llvm.lifetime.end.p0(i64 8, ptr %9) #3
  invoke void @__cxa_end_catch()
          to label %56 unwind label %70

56:                                               ; preds = %52
  br label %65

57:                                               ; preds = %30
  %58 = landingpad { ptr, i32 }
          cleanup
  %59 = extractvalue { ptr, i32 } %58, 0
  store ptr %59, ptr %7, align 8
  %60 = extractvalue { ptr, i32 } %58, 1
  store i32 %60, ptr %8, align 4
  call void @llvm.lifetime.end.p0(i64 8, ptr %15) #3
  invoke void @__cxa_end_catch()
          to label %61 unwind label %70

61:                                               ; preds = %57
  call void @llvm.lifetime.end.p0(i64 8, ptr %14) #3
  br label %65

62:                                               ; preds = %19
  store i32 0, ptr %3, align 4
  br label %63

63:                                               ; preds = %62, %34, %40, %49
  %64 = load i32, ptr %3, align 4
  ret i32 %64

65:                                               ; preds = %61, %56
  %66 = load ptr, ptr %7, align 8
  %67 = load i32, ptr %8, align 4
  %68 = insertvalue { ptr, i32 } poison, ptr %66, 0
  %69 = insertvalue { ptr, i32 } %68, i32 %67, 1
  resume { ptr, i32 } %69

70:                                               ; preds = %57, %52
  %71 = landingpad { ptr, i32 }
          catch ptr null
  %72 = extractvalue { ptr, i32 } %71, 0
  call void @__clang_call_terminate(ptr %72) #16
  unreachable
}