; Function Attrs: uwtable
define range(i32 -4, 1) i32 @faiss_clone_index_binary(ptr noundef %0, ptr noundef writeonly captures(none) %1) local_unnamed_addr #3 personality ptr @__gxx_personality_v0 {
  %3 = alloca %"class.std::__exception_ptr::exception_ptr", align 8
  %4 = alloca %"class.std::__exception_ptr::exception_ptr", align 8
  %5 = alloca %"class.std::__exception_ptr::exception_ptr", align 8
  %6 = alloca %"class.std::__exception_ptr::exception_ptr", align 8
  %7 = alloca %"class.std::runtime_error", align 8
  %8 = alloca %"class.std::__exception_ptr::exception_ptr", align 8
  %9 = alloca %"class.std::exception", align 8
  %10 = alloca %"class.std::__exception_ptr::exception_ptr", align 8
  %11 = alloca %"class.faiss::FaissException", align 8
  %12 = invoke noundef ptr @_ZN5faiss18clone_binary_indexEPKNS_11IndexBinaryE(ptr noundef %0)
          to label %13 unwind label %14

13:                                               ; preds = %2
  store ptr %12, ptr %1, align 8, !tbaa !21
  br label %49

14:                                               ; preds = %2
  %15 = landingpad { ptr, i32 }
          catch ptr @_ZTIN5faiss14FaissExceptionE
          catch ptr @_ZTISt9exception
          catch ptr null
  %16 = extractvalue { ptr, i32 } %15, 0
  %17 = extractvalue { ptr, i32 } %15, 1
  %18 = tail call i32 @llvm.eh.typeid.for.p0(ptr nonnull @_ZTIN5faiss14FaissExceptionE) #16
  %19 = icmp eq i32 %17, %18
  br i1 %19, label %20, label %28

20:                                               ; preds = %14
  %21 = tail call ptr @__cxa_begin_catch(ptr %16) #16
  call void @llvm.lifetime.start.p0(i64 8, ptr nonnull %10) #16
  invoke void @_ZN5faiss14FaissExceptionC2ERKS0_(ptr noundef nonnull align 8 dereferenceable(40) %11, ptr noundef nonnull align 8 dereferenceable(40) %21)
          to label %22 unwind label %47

22:                                               ; preds = %20
  call void @_ZSt18make_exception_ptrIN5faiss14FaissExceptionEENSt15__exception_ptr13exception_ptrET_(ptr dead_on_unwind nonnull writable sret(%"class.std::__exception_ptr::exception_ptr") align 8 %10, ptr noundef nonnull %11) #16
  %.not.i = icmp eq ptr @_ZTH20faiss_last_exception, null
  br i1 %.not.i, label %_ZTW20faiss_last_exception.exit, label %23

23:                                               ; preds = %22
  call void @_ZTH20faiss_last_exception()
  br label %_ZTW20faiss_last_exception.exit

_ZTW20faiss_last_exception.exit:                  ; preds = %22, %23
  %24 = call noundef align 8 ptr @llvm.threadlocal.address.p0(ptr align 8 @faiss_last_exception)
  call void @llvm.lifetime.start.p0(i64 8, ptr nonnull %5) #16
  %25 = load ptr, ptr %10, align 8, !tbaa !8
  store ptr null, ptr %10, align 8, !tbaa !8
  %26 = load ptr, ptr %24, align 8, !tbaa !8
  store ptr %26, ptr %5, align 8, !tbaa !8
  store ptr %25, ptr %24, align 8, !tbaa !8
  %.not.i.i = icmp eq ptr %26, null
  br i1 %.not.i.i, label %_ZNSt15__exception_ptr13exception_ptraSEOS0_.exit.thread, label %_ZNSt15__exception_ptr13exception_ptraSEOS0_.exit

_ZNSt15__exception_ptr13exception_ptraSEOS0_.exit.thread: ; preds = %_ZTW20faiss_last_exception.exit
  call void @llvm.lifetime.end.p0(i64 8, ptr nonnull %5) #16
  br label %_ZNSt15__exception_ptr13exception_ptrD2Ev.exit

_ZNSt15__exception_ptr13exception_ptraSEOS0_.exit: ; preds = %_ZTW20faiss_last_exception.exit
  call void @_ZNSt15__exception_ptr13exception_ptr10_M_releaseEv(ptr noundef nonnull align 8 dereferenceable(8) %5) #16
  %.pr = load ptr, ptr %10, align 8, !tbaa !8
  call void @llvm.lifetime.end.p0(i64 8, ptr nonnull %5) #16
  %.not.i15 = icmp eq ptr %.pr, null
  br i1 %.not.i15, label %_ZNSt15__exception_ptr13exception_ptrD2Ev.exit, label %27

27:                                               ; preds = %_ZNSt15__exception_ptr13exception_ptraSEOS0_.exit
  call void @_ZNSt15__exception_ptr13exception_ptr10_M_releaseEv(ptr noundef nonnull align 8 dereferenceable(8) %10) #16
  br label %_ZNSt15__exception_ptr13exception_ptrD2Ev.exit

_ZNSt15__exception_ptr13exception_ptrD2Ev.exit:   ; preds = %_ZNSt15__exception_ptr13exception_ptraSEOS0_.exit.thread, %_ZNSt15__exception_ptr13exception_ptraSEOS0_.exit, %27
  call void @_ZN5faiss14FaissExceptionD2Ev(ptr noundef nonnull align 8 dereferenceable(40) %11) #16
  call void @llvm.lifetime.end.p0(i64 8, ptr nonnull %10) #16
  call void @__cxa_end_catch()
  br label %49

28:                                               ; preds = %14
  %29 = tail call i32 @llvm.eh.typeid.for.p0(ptr nonnull @_ZTISt9exception) #16
  %30 = icmp eq i32 %17, %29
  %31 = tail call ptr @__cxa_begin_catch(ptr %16) #16
  br i1 %30, label %32, label %38

32:                                               ; preds = %28
  call void @llvm.lifetime.start.p0(i64 8, ptr nonnull %8) #16
  store ptr getelementptr inbounds nuw inrange(-16, 24) (i8, ptr @_ZTVSt9exception, i64 16), ptr %9, align 8, !tbaa !10
  call void @_ZSt18make_exception_ptrISt9exceptionENSt15__exception_ptr13exception_ptrET_(ptr dead_on_unwind nonnull writable sret(%"class.std::__exception_ptr::exception_ptr") align 8 %8, ptr noundef nonnull %9) #16
  %.not.i16 = icmp eq ptr @_ZTH20faiss_last_exception, null
  br i1 %.not.i16, label %_ZTW20faiss_last_exception.exit17, label %33

33:                                               ; preds = %32
  call void @_ZTH20faiss_last_exception()
  br label %_ZTW20faiss_last_exception.exit17

_ZTW20faiss_last_exception.exit17:                ; preds = %32, %33
  %34 = call noundef align 8 ptr @llvm.threadlocal.address.p0(ptr align 8 @faiss_last_exception)
  call void @llvm.lifetime.start.p0(i64 8, ptr nonnull %4) #16
  %35 = load ptr, ptr %8, align 8, !tbaa !8
  store ptr null, ptr %8, align 8, !tbaa !8
  %36 = load ptr, ptr %34, align 8, !tbaa !8
  store ptr %36, ptr %4, align 8, !tbaa !8
  store ptr %35, ptr %34, align 8, !tbaa !8
  %.not.i.i18 = icmp eq ptr %36, null
  br i1 %.not.i.i18, label %_ZNSt15__exception_ptr13exception_ptraSEOS0_.exit19.thread, label %_ZNSt15__exception_ptr13exception_ptraSEOS0_.exit19

_ZNSt15__exception_ptr13exception_ptraSEOS0_.exit19.thread: ; preds = %_ZTW20faiss_last_exception.exit17
  call void @llvm.lifetime.end.p0(i64 8, ptr nonnull %4) #16
  br label %_ZNSt15__exception_ptr13exception_ptrD2Ev.exit21

_ZNSt15__exception_ptr13exception_ptraSEOS0_.exit19: ; preds = %_ZTW20faiss_last_exception.exit17
  call void @_ZNSt15__exception_ptr13exception_ptr10_M_releaseEv(ptr noundef nonnull align 8 dereferenceable(8) %4) #16
  %.pr29 = load ptr, ptr %8, align 8, !tbaa !8
  call void @llvm.lifetime.end.p0(i64 8, ptr nonnull %4) #16
  %.not.i20 = icmp eq ptr %.pr29, null
  br i1 %.not.i20, label %_ZNSt15__exception_ptr13exception_ptrD2Ev.exit21, label %37

37:                                               ; preds = %_ZNSt15__exception_ptr13exception_ptraSEOS0_.exit19
  call void @_ZNSt15__exception_ptr13exception_ptr10_M_releaseEv(ptr noundef nonnull align 8 dereferenceable(8) %8) #16
  br label %_ZNSt15__exception_ptr13exception_ptrD2Ev.exit21

_ZNSt15__exception_ptr13exception_ptrD2Ev.exit21: ; preds = %_ZNSt15__exception_ptr13exception_ptraSEOS0_.exit19.thread, %_ZNSt15__exception_ptr13exception_ptraSEOS0_.exit19, %37
  call void @_ZNSt9exceptionD1Ev(ptr noundef nonnull align 8 dereferenceable(8) %9) #16
  call void @llvm.lifetime.end.p0(i64 8, ptr nonnull %8) #16
  call void @__cxa_end_catch()
  br label %49

38:                                               ; preds = %28
  call void @llvm.lifetime.start.p0(i64 8, ptr nonnull %6) #16
  invoke void @_ZNSt13runtime_errorC1EPKc(ptr noundef nonnull align 8 dereferenceable(16) %7, ptr noundef nonnull @.str)
          to label %39 unwind label %45

39:                                               ; preds = %38
  call void @_ZSt18make_exception_ptrISt13runtime_errorENSt15__exception_ptr13exception_ptrET_(ptr dead_on_unwind nonnull writable sret(%"class.std::__exception_ptr::exception_ptr") align 8 %6, ptr noundef nonnull %7) #16
  %.not.i22 = icmp eq ptr @_ZTH20faiss_last_exception, null
  br i1 %.not.i22, label %_ZTW20faiss_last_exception.exit23, label %40

40:                                               ; preds = %39
  call void @_ZTH20faiss_last_exception()
  br label %_ZTW20faiss_last_exception.exit23

_ZTW20faiss_last_exception.exit23:                ; preds = %39, %40
  %41 = call noundef align 8 ptr @llvm.threadlocal.address.p0(ptr align 8 @faiss_last_exception)
  call void @llvm.lifetime.start.p0(i64 8, ptr nonnull %3) #16
  %42 = load ptr, ptr %6, align 8, !tbaa !8
  store ptr null, ptr %6, align 8, !tbaa !8
  %43 = load ptr, ptr %41, align 8, !tbaa !8
  store ptr %43, ptr %3, align 8, !tbaa !8
  store ptr %42, ptr %41, align 8, !tbaa !8
  %.not.i.i24 = icmp eq ptr %43, null
  br i1 %.not.i.i24, label %_ZNSt15__exception_ptr13exception_ptraSEOS0_.exit25.thread, label %_ZNSt15__exception_ptr13exception_ptraSEOS0_.exit25

_ZNSt15__exception_ptr13exception_ptraSEOS0_.exit25.thread: ; preds = %_ZTW20faiss_last_exception.exit23
  call void @llvm.lifetime.end.p0(i64 8, ptr nonnull %3) #16
  br label %_ZNSt15__exception_ptr13exception_ptrD2Ev.exit27

_ZNSt15__exception_ptr13exception_ptraSEOS0_.exit25: ; preds = %_ZTW20faiss_last_exception.exit23
  call void @_ZNSt15__exception_ptr13exception_ptr10_M_releaseEv(ptr noundef nonnull align 8 dereferenceable(8) %3) #16
  %.pr31 = load ptr, ptr %6, align 8, !tbaa !8
  call void @llvm.lifetime.end.p0(i64 8, ptr nonnull %3) #16
  %.not.i26 = icmp eq ptr %.pr31, null
  br i1 %.not.i26, label %_ZNSt15__exception_ptr13exception_ptrD2Ev.exit27, label %44

44:                                               ; preds = %_ZNSt15__exception_ptr13exception_ptraSEOS0_.exit25
  call void @_ZNSt15__exception_ptr13exception_ptr10_M_releaseEv(ptr noundef nonnull align 8 dereferenceable(8) %6) #16
  br label %_ZNSt15__exception_ptr13exception_ptrD2Ev.exit27

_ZNSt15__exception_ptr13exception_ptrD2Ev.exit27: ; preds = %_ZNSt15__exception_ptr13exception_ptraSEOS0_.exit25.thread, %_ZNSt15__exception_ptr13exception_ptraSEOS0_.exit25, %44
  call void @_ZNSt13runtime_errorD1Ev(ptr noundef nonnull align 8 dereferenceable(16) %7) #16
  call void @llvm.lifetime.end.p0(i64 8, ptr nonnull %6) #16
  call void @__cxa_end_catch()
  br label %49

45:                                               ; preds = %38
  %46 = landingpad { ptr, i32 }
          cleanup
  call void @llvm.lifetime.end.p0(i64 8, ptr nonnull %6) #16
  invoke void @__cxa_end_catch()
          to label %50 unwind label %51

47:                                               ; preds = %20
  %48 = landingpad { ptr, i32 }
          cleanup
  call void @llvm.lifetime.end.p0(i64 8, ptr nonnull %10) #16
  invoke void @__cxa_end_catch()
          to label %50 unwind label %51

49:                                               ; preds = %13, %_ZNSt15__exception_ptr13exception_ptrD2Ev.exit27, %_ZNSt15__exception_ptr13exception_ptrD2Ev.exit21, %_ZNSt15__exception_ptr13exception_ptrD2Ev.exit
  %.0 = phi i32 [ 0, %13 ], [ -2, %_ZNSt15__exception_ptr13exception_ptrD2Ev.exit ], [ -4, %_ZNSt15__exception_ptr13exception_ptrD2Ev.exit21 ], [ -1, %_ZNSt15__exception_ptr13exception_ptrD2Ev.exit27 ]
  ret i32 %.0

50:                                               ; preds = %47, %45
  %.pn = phi { ptr, i32 } [ %46, %45 ], [ %48, %47 ]
  resume { ptr, i32 } %.pn

51:                                               ; preds = %47, %45
  %52 = landingpad { ptr, i32 }
          catch ptr null
  %53 = extractvalue { ptr, i32 } %52, 0
  call void @__clang_call_terminate(ptr %53) #17
  unreachable
}